target datalayout = "e-m:e-p270:32:32-p271:32:32-p272:64:64-i64:64-i128:128-f80:128-n8:16:32:64-S128"
target triple = "x86_64-pc-linux-gnu"

%"class.sat::literal" = type { i32 }
%"class.pb::pbc" = type <{ %"class.pb::constraint", i32, i32, i32, [0 x %"struct.std::pair"], [4 x i8] }>
%"class.pb::constraint" = type { ptr, i32, i8, %"class.sat::literal", %"class.sat::literal", i32, i32, i32, i64, i8, i32, i8, i32 }
%"struct.std::pair" = type { i32, %"class.sat::literal" }

@_ZN3sat12null_literalE = linkonce_odr hidden constant %"class.sat::literal" { i32 -2 }, comdat, align 4

; Function Attrs: mustprogress nounwind uwtable
define linkonce_odr hidden noundef i32 @_ZNK2pb10constraint1kEv(ptr noundef nonnull align 8 dereferenceable(64) %0) #4 comdat align 2 {
  %2 = alloca ptr, align 8
  store ptr %0, ptr %2, align 8, !tbaa !3
  %3 = load ptr, ptr %2, align 8
  %4 = getelementptr inbounds nuw %"class.pb::constraint", ptr %3, i32 0, i32 12
  %5 = load i32, ptr %4, align 4, !tbaa !46
  ret i32 %5
}

; Function Attrs: mustprogress nounwind uwtable
define linkonce_odr hidden noundef ptr @_ZNK2pb3pbc3endEv(ptr noundef nonnull align 8 dereferenceable(76) %0) #4 comdat align 2 {
  %2 = alloca ptr, align 8
  store ptr %0, ptr %2, align 8, !tbaa !8
  %3 = load ptr, ptr %2, align 8
  %4 = call noundef ptr @_ZNK2pb3pbc5beginEv(ptr noundef nonnull align 8 dereferenceable(76) %3)
  %5 = getelementptr inbounds nuw %"class.pb::constraint", ptr %3, i32 0, i32 7
  %6 = load i32, ptr %5, align 8, !tbaa !41
  %7 = zext i32 %6 to i64
  %8 = getelementptr inbounds nuw %"struct.std::pair", ptr %4, i64 %7
  ret ptr %8
}

; Function Attrs: mustprogress nounwind uwtable
define linkonce_odr hidden noundef ptr @_ZNK2pb3pbc5beginEv(ptr noundef nonnull align 8 dereferenceable(76) %0) #4 comdat align 2 {
  %2 = alloca ptr, align 8
  store ptr %0, ptr %2, align 8, !tbaa !8
  %3 = load ptr, ptr %2, align 8
  %4 = getelementptr inbounds nuw %"class.pb::pbc", ptr %3, i32 0, i32 4
  %5 = getelementptr inbounds [0 x %"struct.std::pair"], ptr %4, i64 0, i64 0
  ret ptr %5
}

; Function Attrs: inlinehint mustprogress nounwind uwtable
define linkonce_odr hidden noundef zeroext i1 @_ZN3satneERKNS_7literalES2_(ptr noundef nonnull align 4 dereferenceable(4) %0, ptr noundef nonnull align 4 dereferenceable(4) %1) #8 comdat {
  %3 = alloca ptr, align 8
  %4 = alloca ptr, align 8
  store ptr %0, ptr %3, align 8, !tbaa !61
  store ptr %1, ptr %4, align 8, !tbaa !61
  %5 = load ptr, ptr %3, align 8, !tbaa !61
  %6 = getelementptr inbounds nuw %"class.sat::literal", ptr %5, i32 0, i32 0
  %7 = load i32, ptr %6, align 4, !tbaa !63
  %8 = load ptr, ptr %4, align 8, !tbaa !61
  %9 = getelementptr inbounds nuw %"class.sat::literal", ptr %8, i32 0, i32 0
  %10 = load i32, ptr %9, align 4, !tbaa !63
  %11 = icmp ne i32 %7, %10
  ret i1 %11
}

; Function Attrs: mustprogress nounwind uwtable
define linkonce_odr hidden i32 @_ZNK2pb3pbc3litEv(ptr noundef nonnull align 8 dereferenceable(76) %0) #4 comdat align 2 {
  %2 = alloca %"class.sat::literal", align 4
  %3 = alloca ptr, align 8
  store ptr %0, ptr %3, align 8, !tbaa !8
  %4 = load ptr, ptr %3, align 8
  %5 = getelementptr inbounds nuw %"class.pb::constraint", ptr %4, i32 0, i32 3
  call void @llvm.memcpy.p0.p0.i64(ptr align 4 %2, ptr align 8 %5, i64 4, i1 false), !tbaa.struct !14
  %6 = getelementptr inbounds nuw %"class.sat::literal", ptr %2, i32 0, i32 0
  %7 = load i32, ptr %6, align 4
  ret i32 %7
}

; Function Attrs: mustprogress uwtable
define hidden noundef zeroext i1 @_ZNK2pb3pbc25validate_unit_propagationERKNS_16solver_interfaceEN3sat7literalE(ptr noundef nonnull align 8 dereferenceable(76) %0, ptr noundef nonnull align 8 dereferenceable(8) %1, i32 %2) unnamed_addr #5 align 2 {
  %4 = alloca i1, align 1
  %5 = alloca %"class.sat::literal", align 4
  %6 = alloca ptr, align 8
  %7 = alloca ptr, align 8
  %8 = alloca %"class.sat::literal", align 4
  %9 = alloca %"class.sat::literal", align 4
  %10 = alloca i32, align 4
  %11 = alloca ptr, align 8
  %12 = alloca ptr, align 8
  %13 = alloca ptr, align 8
  %14 = alloca %"struct.std::pair", align 4
  %15 = alloca %"class.sat::literal", align 4
  %16 = alloca i32, align 4
  %17 = alloca %"class.sat::literal", align 4
  %18 = getelementptr inbounds nuw %"class.sat::literal", ptr %5, i32 0, i32 0
  store i32 %2, ptr %18, align 4
  store ptr %0, ptr %6, align 8, !tbaa !8
  store ptr %1, ptr %7, align 8, !tbaa !65
  %19 = load ptr, ptr %6, align 8
  call void @llvm.lifetime.start.p0(i64 4, ptr %8) #3
  %20 = call i32 @_ZNK2pb3pbc3litEv(ptr noundef nonnull align 8 dereferenceable(76) %19)
  %21 = getelementptr inbounds nuw %"class.sat::literal", ptr %8, i32 0, i32 0
  store i32 %20, ptr %21, align 4
  %22 = call noundef zeroext i1 @_ZN3satneERKNS_7literalES2_(ptr noundef nonnull align 4 dereferenceable(4) %8, ptr noundef nonnull align 4 dereferenceable(4) @_ZN3sat12null_literalE)
  br i1 %22, label %23, label %34

23:                                               ; preds = %3
  %24 = load ptr, ptr %7, align 8, !tbaa !65
  %25 = call i32 @_ZNK2pb3pbc3litEv(ptr noundef nonnull align 8 dereferenceable(76) %19)
  %26 = getelementptr inbounds nuw %"class.sat::literal", ptr %9, i32 0, i32 0
  store i32 %25, ptr %26, align 4
  %27 = getelementptr inbounds nuw %"class.sat::literal", ptr %9, i32 0, i32 0
  %28 = load i32, ptr %27, align 4
  %29 = load ptr, ptr %24, align 8, !tbaa !15
  %30 = getelementptr inbounds ptr, ptr %29, i64 3
  %31 = load ptr, ptr %30, align 8
  %32 = call noundef i32 %31(ptr noundef nonnull align 8 dereferenceable(8) %24, i32 %28)
  %33 = icmp ne i32 %32, 1
  br label %34

34:                                               ; preds = %23, %3
  %35 = phi i1 [ false, %3 ], [ %33, %23 ]
  call void @llvm.lifetime.end.p0(i64 4, ptr %8) #3
  br i1 %35, label %36, label %37

36:                                               ; preds = %34
  store i1 false, ptr %4, align 1
  br label %74

37:                                               ; preds = %34
  call void @llvm.lifetime.start.p0(i64 4, ptr %10) #3
  store i32 0, ptr %10, align 4, !tbaa !10
  call void @llvm.lifetime.start.p0(i64 8, ptr %11) #3
  store ptr %19, ptr %11, align 8, !tbaa !8
  call void @llvm.lifetime.start.p0(i64 8, ptr %12) #3
  %38 = load ptr, ptr %11, align 8, !tbaa !8
  %39 = call noundef ptr @_ZNK2pb3pbc5beginEv(ptr noundef nonnull align 8 dereferenceable(76) %38)
  store ptr %39, ptr %12, align 8, !tbaa !47
  call void @llvm.lifetime.start.p0(i64 8, ptr %13) #3
  %40 = load ptr, ptr %11, align 8, !tbaa !8
  %41 = call noundef ptr @_ZNK2pb3pbc3endEv(ptr noundef nonnull align 8 dereferenceable(76) %40)
  store ptr %41, ptr %13, align 8, !tbaa !47
  br label %42

42:                                               ; preds = %67, %37
  %43 = load ptr, ptr %12, align 8, !tbaa !47
  %44 = load ptr, ptr %13, align 8, !tbaa !47
  %45 = icmp ne ptr %43, %44
  br i1 %45, label %47, label %46

46:                                               ; preds = %42
  call void @llvm.lifetime.end.p0(i64 8, ptr %13) #3
  call void @llvm.lifetime.end.p0(i64 8, ptr %12) #3
  call void @llvm.lifetime.end.p0(i64 8, ptr %11) #3
  br label %70

47:                                               ; preds = %42
  call void @llvm.lifetime.start.p0(i64 8, ptr %14) #3
  %48 = load ptr, ptr %12, align 8, !tbaa !47
  call void @llvm.memcpy.p0.p0.i64(ptr align 4 %14, ptr align 4 %48, i64 8, i1 false)
  call void @llvm.lifetime.start.p0(i64 4, ptr %15) #3
  %49 = getelementptr inbounds nuw %"struct.std::pair", ptr %14, i32 0, i32 1
  call void @llvm.memcpy.p0.p0.i64(ptr align 4 %15, ptr align 4 %49, i64 4, i1 false), !tbaa.struct !14
  call void @llvm.lifetime.start.p0(i64 4, ptr %16) #3
  %50 = load ptr, ptr %7, align 8, !tbaa !65
  call void @llvm.memcpy.p0.p0.i64(ptr align 4 %17, ptr align 4 %15, i64 4, i1 false), !tbaa.struct !14
  %51 = getelementptr inbounds nuw %"class.sat::literal", ptr %17, i32 0, i32 0
  %52 = load i32, ptr %51, align 4
  %53 = load ptr, ptr %50, align 8, !tbaa !15
  %54 = getelementptr inbounds ptr, ptr %53, i64 3
  %55 = load ptr, ptr %54, align 8
  %56 = call noundef i32 %55(ptr noundef nonnull align 8 dereferenceable(8) %50, i32 %52)
  store i32 %56, ptr %16, align 4, !tbaa !94
  %57 = load i32, ptr %16, align 4, !tbaa !94
  %58 = icmp ne i32 %57, -1
  br i1 %58, label %59, label %66

59:                                               ; preds = %47
  %60 = call noundef zeroext i1 @_ZN3satneERKNS_7literalES2_(ptr noundef nonnull align 4 dereferenceable(4) %15, ptr noundef nonnull align 4 dereferenceable(4) %5)
  br i1 %60, label %61, label %66

61:                                               ; preds = %59
  %62 = getelementptr inbounds nuw %"struct.std::pair", ptr %14, i32 0, i32 0
  %63 = load i32, ptr %62, align 4, !tbaa !26
  %64 = load i32, ptr %10, align 4, !tbaa !10
  %65 = add i32 %64, %63
  store i32 %65, ptr %10, align 4, !tbaa !10
  br label %66

66:                                               ; preds = %61, %59, %47
  call void @llvm.lifetime.end.p0(i64 4, ptr %16) #3
  call void @llvm.lifetime.end.p0(i64 4, ptr %15) #3
  call void @llvm.lifetime.end.p0(i64 8, ptr %14) #3
  br label %67

67:                                               ; preds = %66
  %68 = load ptr, ptr %12, align 8, !tbaa !47
  %69 = getelementptr inbounds nuw %"struct.std::pair", ptr %68, i32 1
  store ptr %69, ptr %12, align 8, !tbaa !47
  br label %42

70:                                               ; preds = %46
  %71 = load i32, ptr %10, align 4, !tbaa !10
  %72 = call noundef i32 @_ZNK2pb10constraint1kEv(ptr noundef nonnull align 8 dereferenceable(64) %19)
  %73 = icmp ult i32 %71, %72
  store i1 %73, ptr %4, align 1
  call void @llvm.lifetime.end.p0(i64 4, ptr %10) #3
  br label %74

74:                                               ; preds = %70, %36
  %75 = load i1, ptr %4, align 1
  ret i1 %75
}