; Function Attrs: mustprogress uwtable
define hidden noundef zeroext i1 @_ZNK2pb3pbc25validate_unit_propagationERKNS_16solver_interfaceEN3sat7literalE(ptr noundef nonnull readonly align 8 captures(address) dereferenceable(76) %0, ptr noundef nonnull align 8 dereferenceable(8) %1, i32 %2) unnamed_addr #4 align 2 {
  %4 = getelementptr inbounds nuw i8, ptr %0, i64 16
  %.sroa.0.0.copyload.i = load i32, ptr %4, align 8, !tbaa !9
  %.not21 = icmp eq i32 %.sroa.0.0.copyload.i, -2
  br i1 %.not21, label %.critedge, label %5

5:                                                ; preds = %3
  %6 = load ptr, ptr %1, align 8, !tbaa !26
  %7 = getelementptr inbounds nuw i8, ptr %6, i64 24
  %8 = load ptr, ptr %7, align 8
  %9 = tail call noundef i32 %8(ptr noundef nonnull align 8 dereferenceable(8) %1, i32 %.sroa.0.0.copyload.i)
  %.not = icmp eq i32 %9, 1
  br i1 %.not, label %.critedge, label %23

.critedge:                                        ; preds = %3, %5
  %10 = getelementptr inbounds nuw i8, ptr %0, i64 32
  %11 = load i32, ptr %10, align 8, !tbaa !20
  %12 = zext i32 %11 to i64
  %.idx = shl nuw nsw i64 %12, 3
  %13 = getelementptr inbounds nuw i8, ptr %0, i64 %.idx
  %.ptr26 = getelementptr inbounds nuw i8, ptr %13, i64 76
  %.not1623 = icmp eq i32 %11, 0
  br i1 %.not1623, label %._crit_edge, label %.lr.ph.preheader

.lr.ph.preheader:                                 ; preds = %.critedge
  %.ptr = getelementptr inbounds nuw i8, ptr %0, i64 76
  br label %.lr.ph

._crit_edge:                                      ; preds = %.lr.ph, %.critedge
  %.014.lcssa = phi i32 [ 0, %.critedge ], [ %.1, %.lr.ph ]
  %14 = getelementptr inbounds nuw i8, ptr %0, i64 60
  %15 = load i32, ptr %14, align 4, !tbaa !25
  %16 = icmp ult i32 %.014.lcssa, %15
  br label %23

.lr.ph:                                           ; preds = %.lr.ph.preheader, %.lr.ph
  %.01425 = phi i32 [ %.1, %.lr.ph ], [ 0, %.lr.ph.preheader ]
  %.01524 = phi ptr [ %22, %.lr.ph ], [ %.ptr, %.lr.ph.preheader ]
  %.sroa.01.0.copyload = load i32, ptr %.01524, align 4
  %.sroa.4.0..sroa_idx = getelementptr inbounds nuw i8, ptr %.01524, i64 4
  %.sroa.4.0.copyload = load i32, ptr %.sroa.4.0..sroa_idx, align 4
  %17 = load ptr, ptr %1, align 8, !tbaa !26
  %18 = getelementptr inbounds nuw i8, ptr %17, i64 24
  %19 = load ptr, ptr %18, align 8
  %20 = tail call noundef i32 %19(ptr noundef nonnull align 8 dereferenceable(8) %1, i32 %.sroa.4.0.copyload)
  %.not17 = icmp eq i32 %20, -1
  %.not22 = icmp eq i32 %.sroa.4.0.copyload, %2
  %21 = select i1 %.not17, i1 true, i1 %.not22
  %spec.select = select i1 %21, i32 0, i32 %.sroa.01.0.copyload
  %.1 = add i32 %spec.select, %.01425
  %22 = getelementptr inbounds nuw i8, ptr %.01524, i64 8
  %.not16 = icmp eq ptr %22, %.ptr26
  br i1 %.not16, label %._crit_edge, label %.lr.ph

23:                                               ; preds = %5, %._crit_edge
  %.0 = phi i1 [ %16, %._crit_edge ], [ false, %5 ]
  ret i1 %.0
}